target datalayout = "e-m:e-p270:32:32-p271:32:32-p272:64:64-i64:64-i128:128-f80:128-n8:16:32:64-S128"
target triple = "x86_64-pc-linux-gnu"

%struct.NVGparams = type { ptr, i32, ptr, ptr, ptr, ptr, ptr, ptr, ptr, ptr, ptr, ptr, ptr, ptr }
%struct.GLNVGcontext = type { %struct.GLNVGshader, ptr, [2 x float], i32, i32, i32, i32, i32, i32, i32, i32, ptr, i32, i32, ptr, i32, i32, ptr, i32, i32, ptr, i32, i32, i32, i32, i32, i32, i32, %struct.GLNVGblend }
%struct.GLNVGshader = type { i32, i32, i32, [3 x i32] }
%struct.GLNVGblend = type { i32, i32, i32, i32 }
%struct.GLNVGtexture = type { i32, i32, i32, i32, i32, i32 }

; Function Attrs: mustprogress nounwind uwtable
define internal noundef i32 @_ZL11glnvg__maxiii(i32 noundef %0, i32 noundef %1) #7 {
  %3 = alloca i32, align 4
  %4 = alloca i32, align 4
  store i32 %0, ptr %3, align 4
  store i32 %1, ptr %4, align 4
  %5 = load i32, ptr %3, align 4
  %6 = load i32, ptr %4, align 4
  %7 = icmp sgt i32 %5, %6
  br i1 %7, label %8, label %10

8:                                                ; preds = %2
  %9 = load i32, ptr %3, align 4
  br label %12

10:                                               ; preds = %2
  %11 = load i32, ptr %4, align 4
  br label %12

12:                                               ; preds = %10, %8
  %13 = phi i32 [ %9, %8 ], [ %11, %10 ]
  ret i32 %13
}

; Function Attrs: mustprogress nounwind uwtable
define internal noundef ptr @_ZL19glnvg__allocTextureP12GLNVGcontext(ptr noundef %0) #7 {
  %2 = alloca ptr, align 8
  %3 = alloca ptr, align 8
  %4 = alloca ptr, align 8
  %5 = alloca i32, align 4
  %6 = alloca ptr, align 8
  %7 = alloca i32, align 4
  store ptr %0, ptr %3, align 8
  store ptr null, ptr %4, align 8
  store i32 0, ptr %5, align 4
  br label %8

8:                                                ; preds = %32, %1
  %9 = load i32, ptr %5, align 4
  %10 = load ptr, ptr %3, align 8
  %11 = getelementptr inbounds %struct.GLNVGcontext, ptr %10, i32 0, i32 3
  %12 = load i32, ptr %11, align 8
  %13 = icmp slt i32 %9, %12
  br i1 %13, label %14, label %35

14:                                               ; preds = %8
  %15 = load ptr, ptr %3, align 8
  %16 = getelementptr inbounds %struct.GLNVGcontext, ptr %15, i32 0, i32 1
  %17 = load ptr, ptr %16, align 8
  %18 = load i32, ptr %5, align 4
  %19 = sext i32 %18 to i64
  %20 = getelementptr inbounds %struct.GLNVGtexture, ptr %17, i64 %19
  %21 = getelementptr inbounds %struct.GLNVGtexture, ptr %20, i32 0, i32 0
  %22 = load i32, ptr %21, align 4
  %23 = icmp eq i32 %22, 0
  br i1 %23, label %24, label %31

24:                                               ; preds = %14
  %25 = load ptr, ptr %3, align 8
  %26 = getelementptr inbounds %struct.GLNVGcontext, ptr %25, i32 0, i32 1
  %27 = load ptr, ptr %26, align 8
  %28 = load i32, ptr %5, align 4
  %29 = sext i32 %28 to i64
  %30 = getelementptr inbounds %struct.GLNVGtexture, ptr %27, i64 %29
  store ptr %30, ptr %4, align 8
  br label %35

31:                                               ; preds = %14
  br label %32

32:                                               ; preds = %31
  %33 = load i32, ptr %5, align 4
  %34 = add nsw i32 %33, 1
  store i32 %34, ptr %5, align 4
  br label %8, !llvm.loop !10

35:                                               ; preds = %24, %8
  %36 = load ptr, ptr %4, align 8
  %37 = icmp eq ptr %36, null
  br i1 %37, label %38, label %85

38:                                               ; preds = %35
  %39 = load ptr, ptr %3, align 8
  %40 = getelementptr inbounds %struct.GLNVGcontext, ptr %39, i32 0, i32 3
  %41 = load i32, ptr %40, align 8
  %42 = add nsw i32 %41, 1
  %43 = load ptr, ptr %3, align 8
  %44 = getelementptr inbounds %struct.GLNVGcontext, ptr %43, i32 0, i32 4
  %45 = load i32, ptr %44, align 4
  %46 = icmp sgt i32 %42, %45
  br i1 %46, label %47, label %75

47:                                               ; preds = %38
  %48 = load ptr, ptr %3, align 8
  %49 = getelementptr inbounds %struct.GLNVGcontext, ptr %48, i32 0, i32 3
  %50 = load i32, ptr %49, align 8
  %51 = add nsw i32 %50, 1
  %52 = call noundef i32 @_ZL11glnvg__maxiii(i32 noundef %51, i32 noundef 4)
  %53 = load ptr, ptr %3, align 8
  %54 = getelementptr inbounds %struct.GLNVGcontext, ptr %53, i32 0, i32 4
  %55 = load i32, ptr %54, align 4
  %56 = sdiv i32 %55, 2
  %57 = add nsw i32 %52, %56
  store i32 %57, ptr %7, align 4
  %58 = load ptr, ptr %3, align 8
  %59 = getelementptr inbounds %struct.GLNVGcontext, ptr %58, i32 0, i32 1
  %60 = load ptr, ptr %59, align 8
  %61 = load i32, ptr %7, align 4
  %62 = sext i32 %61 to i64
  %63 = mul i64 24, %62
  %64 = call ptr @realloc(ptr noundef %60, i64 noundef %63) #22
  store ptr %64, ptr %6, align 8
  %65 = load ptr, ptr %6, align 8
  %66 = icmp eq ptr %65, null
  br i1 %66, label %67, label %68

67:                                               ; preds = %47
  store ptr null, ptr %2, align 8
  br label %94

68:                                               ; preds = %47
  %69 = load ptr, ptr %6, align 8
  %70 = load ptr, ptr %3, align 8
  %71 = getelementptr inbounds %struct.GLNVGcontext, ptr %70, i32 0, i32 1
  store ptr %69, ptr %71, align 8
  %72 = load i32, ptr %7, align 4
  %73 = load ptr, ptr %3, align 8
  %74 = getelementptr inbounds %struct.GLNVGcontext, ptr %73, i32 0, i32 4
  store i32 %72, ptr %74, align 4
  br label %75

75:                                               ; preds = %68, %38
  %76 = load ptr, ptr %3, align 8
  %77 = getelementptr inbounds %struct.GLNVGcontext, ptr %76, i32 0, i32 1
  %78 = load ptr, ptr %77, align 8
  %79 = load ptr, ptr %3, align 8
  %80 = getelementptr inbounds %struct.GLNVGcontext, ptr %79, i32 0, i32 3
  %81 = load i32, ptr %80, align 8
  %82 = add nsw i32 %81, 1
  store i32 %82, ptr %80, align 8
  %83 = sext i32 %81 to i64
  %84 = getelementptr inbounds %struct.GLNVGtexture, ptr %78, i64 %83
  store ptr %84, ptr %4, align 8
  br label %85

85:                                               ; preds = %75, %35
  %86 = load ptr, ptr %4, align 8
  call void @llvm.memset.p0.i64(ptr align 4 %86, i8 0, i64 24, i1 false)
  %87 = load ptr, ptr %3, align 8
  %88 = getelementptr inbounds %struct.GLNVGcontext, ptr %87, i32 0, i32 5
  %89 = load i32, ptr %88, align 8
  %90 = add nsw i32 %89, 1
  store i32 %90, ptr %88, align 8
  %91 = load ptr, ptr %4, align 8
  %92 = getelementptr inbounds %struct.GLNVGtexture, ptr %91, i32 0, i32 0
  store i32 %90, ptr %92, align 4
  %93 = load ptr, ptr %4, align 8
  store ptr %93, ptr %2, align 8
  br label %94

94:                                               ; preds = %85, %67
  %95 = load ptr, ptr %2, align 8
  ret ptr %95
}

; Function Attrs: mustprogress uwtable
define hidden i32 @nvglCreateImageFromHandleGL3(ptr noundef %0, i32 noundef %1, i32 noundef %2, i32 noundef %3, i32 noundef %4) #4 {
  %6 = alloca i32, align 4
  %7 = alloca ptr, align 8
  %8 = alloca i32, align 4
  %9 = alloca i32, align 4
  %10 = alloca i32, align 4
  %11 = alloca i32, align 4
  %12 = alloca ptr, align 8
  %13 = alloca ptr, align 8
  store ptr %0, ptr %7, align 8
  store i32 %1, ptr %8, align 4
  store i32 %2, ptr %9, align 4
  store i32 %3, ptr %10, align 4
  store i32 %4, ptr %11, align 4
  %14 = load ptr, ptr %7, align 8
  %15 = call ptr @nvgInternalParams(ptr noundef %14)
  %16 = getelementptr inbounds %struct.NVGparams, ptr %15, i32 0, i32 0
  %17 = load ptr, ptr %16, align 8
  store ptr %17, ptr %12, align 8
  %18 = load ptr, ptr %12, align 8
  %19 = call noundef ptr @_ZL19glnvg__allocTextureP12GLNVGcontext(ptr noundef %18)
  store ptr %19, ptr %13, align 8
  %20 = load ptr, ptr %13, align 8
  %21 = icmp eq ptr %20, null
  br i1 %21, label %22, label %23

22:                                               ; preds = %5
  store i32 0, ptr %6, align 4
  br label %41

23:                                               ; preds = %5
  %24 = load ptr, ptr %13, align 8
  %25 = getelementptr inbounds %struct.GLNVGtexture, ptr %24, i32 0, i32 4
  store i32 2, ptr %25, align 4
  %26 = load i32, ptr %8, align 4
  %27 = load ptr, ptr %13, align 8
  %28 = getelementptr inbounds %struct.GLNVGtexture, ptr %27, i32 0, i32 1
  store i32 %26, ptr %28, align 4
  %29 = load i32, ptr %11, align 4
  %30 = load ptr, ptr %13, align 8
  %31 = getelementptr inbounds %struct.GLNVGtexture, ptr %30, i32 0, i32 5
  store i32 %29, ptr %31, align 4
  %32 = load i32, ptr %9, align 4
  %33 = load ptr, ptr %13, align 8
  %34 = getelementptr inbounds %struct.GLNVGtexture, ptr %33, i32 0, i32 2
  store i32 %32, ptr %34, align 4
  %35 = load i32, ptr %10, align 4
  %36 = load ptr, ptr %13, align 8
  %37 = getelementptr inbounds %struct.GLNVGtexture, ptr %36, i32 0, i32 3
  store i32 %35, ptr %37, align 4
  %38 = load ptr, ptr %13, align 8
  %39 = getelementptr inbounds %struct.GLNVGtexture, ptr %38, i32 0, i32 0
  %40 = load i32, ptr %39, align 4
  store i32 %40, ptr %6, align 4
  br label %41

41:                                               ; preds = %23, %22
  %42 = load i32, ptr %6, align 4
  ret i32 %42
}