; Function Attrs: mustprogress uwtable
define hidden i32 @nvglCreateImageFromHandleGL3(ptr noundef %0, i32 noundef %1, i32 noundef %2, i32 noundef %3, i32 noundef %4) local_unnamed_addr #3 {
  %6 = tail call ptr @nvgInternalParams(ptr noundef %0)
  %7 = load ptr, ptr %6, align 8
  %8 = getelementptr inbounds i8, ptr %7, i64 40
  %9 = load i32, ptr %8, align 8
  %10 = icmp sgt i32 %9, 0
  br i1 %10, label %.lr.ph.i, label %._crit_edge.i

.lr.ph.i:                                         ; preds = %5
  %11 = getelementptr inbounds i8, ptr %7, i64 24
  %12 = load ptr, ptr %11, align 8
  %wide.trip.count.i = zext nneg i32 %9 to i64
  br label %14

13:                                               ; preds = %14
  %indvars.iv.next.i = add nuw nsw i64 %indvars.iv.i, 1
  %exitcond.not.i = icmp eq i64 %indvars.iv.next.i, %wide.trip.count.i
  br i1 %exitcond.not.i, label %._crit_edge.i, label %14, !llvm.loop !5

14:                                               ; preds = %13, %.lr.ph.i
  %indvars.iv.i = phi i64 [ 0, %.lr.ph.i ], [ %indvars.iv.next.i, %13 ]
  %15 = getelementptr inbounds %struct.GLNVGtexture, ptr %12, i64 %indvars.iv.i
  %16 = load i32, ptr %15, align 4
  %17 = icmp eq i32 %16, 0
  br i1 %17, label %_ZL19glnvg__allocTextureP12GLNVGcontext.exit, label %13

._crit_edge.i:                                    ; preds = %13, %5
  %18 = getelementptr inbounds i8, ptr %7, i64 44
  %19 = load i32, ptr %18, align 4
  %.not.i = icmp slt i32 %9, %19
  br i1 %.not.i, label %._crit_edge._crit_edge.i, label %20

._crit_edge._crit_edge.i:                         ; preds = %._crit_edge.i
  %.phi.trans.insert.i = getelementptr inbounds i8, ptr %7, i64 24
  %.pre.i = load ptr, ptr %.phi.trans.insert.i, align 8
  br label %32

20:                                               ; preds = %._crit_edge.i
  %21 = tail call i32 @llvm.smax.i32(i32 %9, i32 3)
  %22 = add nuw nsw i32 %21, 1
  %23 = sdiv i32 %19, 2
  %24 = add nsw i32 %22, %23
  %25 = getelementptr inbounds i8, ptr %7, i64 24
  %26 = load ptr, ptr %25, align 8
  %27 = sext i32 %24 to i64
  %28 = mul nsw i64 %27, 24
  %29 = tail call ptr @realloc(ptr noundef %26, i64 noundef %28) #29
  %30 = icmp eq ptr %29, null
  br i1 %30, label %_ZL19glnvg__allocTextureP12GLNVGcontext.exit.thread, label %31

31:                                               ; preds = %20
  store ptr %29, ptr %25, align 8
  store i32 %24, ptr %18, align 4
  %.pre37.i = load i32, ptr %8, align 8
  br label %32

32:                                               ; preds = %31, %._crit_edge._crit_edge.i
  %33 = phi i32 [ %9, %._crit_edge._crit_edge.i ], [ %.pre37.i, %31 ]
  %34 = phi ptr [ %.pre.i, %._crit_edge._crit_edge.i ], [ %29, %31 ]
  %35 = add nsw i32 %33, 1
  store i32 %35, ptr %8, align 8
  %36 = sext i32 %33 to i64
  %37 = getelementptr inbounds %struct.GLNVGtexture, ptr %34, i64 %36
  br label %_ZL19glnvg__allocTextureP12GLNVGcontext.exit

_ZL19glnvg__allocTextureP12GLNVGcontext.exit:     ; preds = %14, %32
  %.1.i = phi ptr [ %37, %32 ], [ %15, %14 ]
  tail call void @llvm.memset.p0.i64(ptr noundef nonnull align 4 dereferenceable(24) %.1.i, i8 0, i64 24, i1 false)
  %38 = getelementptr inbounds i8, ptr %7, i64 48
  %39 = load i32, ptr %38, align 8
  %40 = add nsw i32 %39, 1
  store i32 %40, ptr %38, align 8
  store i32 %40, ptr %.1.i, align 4
  %41 = getelementptr inbounds i8, ptr %.1.i, i64 16
  store i32 2, ptr %41, align 4
  %42 = getelementptr inbounds i8, ptr %.1.i, i64 4
  store i32 %1, ptr %42, align 4
  %43 = getelementptr inbounds i8, ptr %.1.i, i64 20
  store i32 %4, ptr %43, align 4
  %44 = getelementptr inbounds i8, ptr %.1.i, i64 8
  store i32 %2, ptr %44, align 4
  %45 = getelementptr inbounds i8, ptr %.1.i, i64 12
  store i32 %3, ptr %45, align 4
  br label %_ZL19glnvg__allocTextureP12GLNVGcontext.exit.thread

_ZL19glnvg__allocTextureP12GLNVGcontext.exit.thread: ; preds = %20, %_ZL19glnvg__allocTextureP12GLNVGcontext.exit
  %.0 = phi i32 [ %40, %_ZL19glnvg__allocTextureP12GLNVGcontext.exit ], [ 0, %20 ]
  ret i32 %.0
}